target datalayout = "e-m:e-p270:32:32-p271:32:32-p272:64:64-i64:64-i128:128-f80:128-n8:16:32:64-S128"
target triple = "x86_64-pc-linux-gnu"

%struct.date_mode = type { i32, i32, ptr }
%struct.string_list = type { ptr, i64, i64, i8, ptr }
%struct.shortlog = type { %struct.string_list, i32, i32, i32, i32, i32, i32, i32, i32, %struct.date_mode, i32, %struct.string_list, %struct.string_list, i32, %struct.string_list, ptr }

; Function Attrs: nounwind uwtable
define dso_local void @shortlog_init(ptr noundef %0) #0 {
  %2 = alloca ptr, align 8
  store ptr %0, ptr %2, align 8, !tbaa !4
  %3 = load ptr, ptr %2, align 8, !tbaa !4
  call void @llvm.memset.p0.i64(ptr align 8 %3, i8 0, i64 232, i1 false)
  %4 = load ptr, ptr %2, align 8, !tbaa !4
  %5 = getelementptr inbounds nuw %struct.shortlog, ptr %4, i32 0, i32 14
  %6 = call i32 @read_mailmap(ptr noundef %5)
  %7 = load ptr, ptr %2, align 8, !tbaa !4
  %8 = getelementptr inbounds nuw %struct.shortlog, ptr %7, i32 0, i32 0
  %9 = getelementptr inbounds nuw %struct.string_list, ptr %8, i32 0, i32 3
  %10 = load i8, ptr %9, align 8
  %11 = and i8 %10, -2
  %12 = or i8 %11, 1
  store i8 %12, ptr %9, align 8
  %13 = load ptr, ptr %2, align 8, !tbaa !4
  %14 = getelementptr inbounds nuw %struct.shortlog, ptr %13, i32 0, i32 4
  store i32 76, ptr %14, align 4, !tbaa !57
  %15 = load ptr, ptr %2, align 8, !tbaa !4
  %16 = getelementptr inbounds nuw %struct.shortlog, ptr %15, i32 0, i32 5
  store i32 6, ptr %16, align 8, !tbaa !58
  %17 = load ptr, ptr %2, align 8, !tbaa !4
  %18 = getelementptr inbounds nuw %struct.shortlog, ptr %17, i32 0, i32 6
  store i32 9, ptr %18, align 4, !tbaa !59
  %19 = load ptr, ptr %2, align 8, !tbaa !4
  %20 = getelementptr inbounds nuw %struct.shortlog, ptr %19, i32 0, i32 11
  %21 = getelementptr inbounds nuw %struct.string_list, ptr %20, i32 0, i32 3
  %22 = load i8, ptr %21, align 8
  %23 = and i8 %22, -2
  %24 = or i8 %23, 1
  store i8 %24, ptr %21, align 8
  %25 = load ptr, ptr %2, align 8, !tbaa !4
  %26 = getelementptr inbounds nuw %struct.shortlog, ptr %25, i32 0, i32 11
  %27 = getelementptr inbounds nuw %struct.string_list, ptr %26, i32 0, i32 4
  store ptr @strcasecmp, ptr %27, align 8, !tbaa !60
  %28 = load ptr, ptr %2, align 8, !tbaa !4
  %29 = getelementptr inbounds nuw %struct.shortlog, ptr %28, i32 0, i32 12
  %30 = getelementptr inbounds nuw %struct.string_list, ptr %29, i32 0, i32 3
  %31 = load i8, ptr %30, align 8
  %32 = and i8 %31, -2
  %33 = or i8 %32, 1
  store i8 %33, ptr %30, align 8
  ret void
}