; Function Attrs: nounwind uwtable
define dso_local void @shortlog_init(ptr noundef initializes((0, 232)) %0) local_unnamed_addr #0 {
  tail call void @llvm.memset.p0.i64(ptr noundef nonnull align 8 dereferenceable(232) %0, i8 0, i64 232, i1 false)
  %2 = getelementptr inbounds nuw i8, ptr %0, i64 184
  %3 = tail call i32 @read_mailmap(ptr noundef nonnull %2) #17
  %4 = getelementptr inbounds nuw i8, ptr %0, i64 24
  %5 = load i8, ptr %4, align 8
  %6 = or i8 %5, 1
  store i8 %6, ptr %4, align 8
  %7 = getelementptr inbounds nuw i8, ptr %0, i64 52
  store i32 76, ptr %7, align 4, !tbaa !49
  %8 = getelementptr inbounds nuw i8, ptr %0, i64 56
  store i32 6, ptr %8, align 8, !tbaa !50
  %9 = getelementptr inbounds nuw i8, ptr %0, i64 60
  store i32 9, ptr %9, align 4, !tbaa !51
  %10 = getelementptr inbounds nuw i8, ptr %0, i64 120
  %11 = load i8, ptr %10, align 8
  %12 = or i8 %11, 1
  store i8 %12, ptr %10, align 8
  %13 = getelementptr inbounds nuw i8, ptr %0, i64 128
  store ptr @strcasecmp, ptr %13, align 8, !tbaa !52
  %14 = getelementptr inbounds nuw i8, ptr %0, i64 160
  %15 = load i8, ptr %14, align 8
  %16 = or i8 %15, 1
  store i8 %16, ptr %14, align 8
  ret void
}